target datalayout = "e-m:e-p270:32:32-p271:32:32-p272:64:64-i64:64-i128:128-f80:128-n8:16:32:64-S128"
target triple = "x86_64-pc-linux-gnu"

%struct.dbd_register_ctld_msg = type { i16, i32, i16 }

; Function Attrs: nounwind uwtable
define internal void @_pack_register_ctld_msg(ptr noundef %0, i16 noundef zeroext %1, ptr noundef %2) #0 {
  %4 = alloca ptr, align 8
  %5 = alloca i16, align 2
  %6 = alloca ptr, align 8
  store ptr %0, ptr %4, align 8
  store i16 %1, ptr %5, align 2
  store ptr %2, ptr %6, align 8
  %7 = load i16, ptr %5, align 2
  %8 = zext i16 %7 to i32
  %9 = icmp sge i32 %8, 10496
  br i1 %9, label %10, label %23

10:                                               ; preds = %3
  %11 = load ptr, ptr %4, align 8
  %12 = getelementptr inbounds nuw %struct.dbd_register_ctld_msg, ptr %11, i32 0, i32 0
  %13 = load i16, ptr %12, align 4
  %14 = load ptr, ptr %6, align 8
  call void @pack16(i16 noundef zeroext %13, ptr noundef %14)
  %15 = load ptr, ptr %4, align 8
  %16 = getelementptr inbounds nuw %struct.dbd_register_ctld_msg, ptr %15, i32 0, i32 1
  %17 = load i32, ptr %16, align 4
  %18 = load ptr, ptr %6, align 8
  call void @pack32(i32 noundef %17, ptr noundef %18)
  %19 = load ptr, ptr %4, align 8
  %20 = getelementptr inbounds nuw %struct.dbd_register_ctld_msg, ptr %19, i32 0, i32 2
  %21 = load i16, ptr %20, align 4
  %22 = load ptr, ptr %6, align 8
  call void @pack16(i16 noundef zeroext %21, ptr noundef %22)
  br label %42

23:                                               ; preds = %3
  %24 = load i16, ptr %5, align 2
  %25 = zext i16 %24 to i32
  %26 = icmp sge i32 %25, 10240
  br i1 %26, label %27, label %41

27:                                               ; preds = %23
  %28 = load ptr, ptr %4, align 8
  %29 = getelementptr inbounds nuw %struct.dbd_register_ctld_msg, ptr %28, i32 0, i32 0
  %30 = load i16, ptr %29, align 4
  %31 = load ptr, ptr %6, align 8
  call void @pack16(i16 noundef zeroext %30, ptr noundef %31)
  %32 = load ptr, ptr %4, align 8
  %33 = getelementptr inbounds nuw %struct.dbd_register_ctld_msg, ptr %32, i32 0, i32 1
  %34 = load i32, ptr %33, align 4
  %35 = load ptr, ptr %6, align 8
  call void @pack32(i32 noundef %34, ptr noundef %35)
  %36 = load ptr, ptr %6, align 8
  call void @pack32(i32 noundef -2, ptr noundef %36)
  %37 = load ptr, ptr %4, align 8
  %38 = getelementptr inbounds nuw %struct.dbd_register_ctld_msg, ptr %37, i32 0, i32 2
  %39 = load i16, ptr %38, align 4
  %40 = load ptr, ptr %6, align 8
  call void @pack16(i16 noundef zeroext %39, ptr noundef %40)
  br label %41

41:                                               ; preds = %27, %23
  br label %42

42:                                               ; preds = %41, %10
  ret void
}