; Function Attrs: nounwind uwtable
define internal fastcc void @_pack_register_ctld_msg(ptr noundef readonly captures(none) %0, i16 noundef zeroext %1, ptr noundef %2) unnamed_addr #0 {
  %4 = icmp ugt i16 %1, 10495
  br i1 %4, label %5, label %9

5:                                                ; preds = %3
  %6 = load i16, ptr %0, align 4
  tail call void @pack16(i16 noundef zeroext %6, ptr noundef %2) #5
  %7 = getelementptr inbounds nuw i8, ptr %0, i64 4
  %8 = load i32, ptr %7, align 4
  br label %.sink.split

9:                                                ; preds = %3
  %10 = icmp samesign ugt i16 %1, 10239
  br i1 %10, label %11, label %17

11:                                               ; preds = %9
  %12 = load i16, ptr %0, align 4
  tail call void @pack16(i16 noundef zeroext %12, ptr noundef %2) #5
  %13 = getelementptr inbounds nuw i8, ptr %0, i64 4
  %14 = load i32, ptr %13, align 4
  tail call void @pack32(i32 noundef %14, ptr noundef %2) #5
  br label %.sink.split

.sink.split:                                      ; preds = %5, %11
  %.sink = phi i32 [ -2, %11 ], [ %8, %5 ]
  tail call void @pack32(i32 noundef %.sink, ptr noundef %2) #5
  %15 = getelementptr inbounds nuw i8, ptr %0, i64 8
  %16 = load i16, ptr %15, align 4
  tail call void @pack16(i16 noundef zeroext %16, ptr noundef %2) #5
  br label %17

17:                                               ; preds = %.sink.split, %9
  ret void
}